(dp0
S'sig_mid'
p1
cnumpy.core.multiarray
scalar
p2
(cnumpy
dtype
p3
(S'f8'
p4
I0
I1
tp5
Rp6
(I3
S'<'
p7
NNNI-1
I-1
I0
tp8
bS'\x0c0\x11\xda\xbb\x119\xc0'
p9
tp10
Rp11
sS'learning_settings'
p12
(dp13
S'loc'
p14
I0
sS'acq'
p15
S'poi'
p16
sS'const'
p17
F0.001
sS'd'
p18
F0.1
sS'alpha'
p19
F1e-10
ssS'keys'
p20
(lp21
S'c_KP_t_zz'
p22
asS'rot_error'
p23
cnumpy.core.multiarray
_reconstruct
p24
(cnumpy
ndarray
p25
(I0
tp26
S'b'
p27
tp28
Rp29
(I1
(I2
I3
tp30
g6
I00
S'-Fx\xca\xb0\x9ea?O`\xac4]m\x86?>e\xab\xf2\xde\x89\x98?X \x8d^j\xd3\xc0?:\x03\x06}N\x8c\xe7?\xb4\n\xec\xa3w\xa6\xc3?'
p31
tp32
bsS'pos_error'
p33
g24
(g25
(I0
tp34
g27
tp35
Rp36
(I1
(I2
I3
tp37
g6
I00
S'4\\\xcd\x1e\xfc\xef\xa9?\xbe\xec\xcb\x16\x187\x9b?\xff/bT\xf2T\xba?\x8e\x9b\x90\xed\xfd\xf5\xe6?#{\xf6^\x18\x82\xcf?\xb0O6\xd4J\x02\xd8?'
p38
tp39
bsS'controlled_vars'
p40
(dp41
g22
(F1.0
F300.0
tp42
ssS'init_pts_num'
p43
I1
sS'action_settings'
p44
(dp45
S'speed'
p46
F0.2
sS'depth'
p47
F0.05
sS'radius'
p48
F0.1
sS'atype'
p49
I0
ssS'y'
p50
g24
(g25
(I0
tp51
g27
tp52
Rp53
(I1
(I2
tp54
g6
I00
S"\x0c0\x11\xda\xbb\x119\xc0\x06\xb8\x11d'\xe0r\xc0"
p55
tp56
bsS'x'
p57
g24
(g25
(I0
tp58
g27
tp59
Rp60
(I1
(I2
I1
tp61
g6
I00
S'\x00\x00\x00\x00\x00\x00$@H0\xea\x91_9c@'
p62
tp63
bsS'fixed_vars'
p64
(dp65
sS'linked_vars'
p66
(dp67
s.